; Function Attrs: mustprogress nounwind uwtable
define hidden void @_ZN12LIRGenerator12do_blackholeEP9Intrinsic(ptr noundef nonnull align 8 dereferenceable(232) %0, ptr nocapture noundef readonly %1) local_unnamed_addr #3 align 2 {
  %3 = alloca %class.LIRItem, align 8
  %4 = getelementptr inbounds i8, ptr %1, i64 112
  %5 = load ptr, ptr %4, align 8
  %6 = load i32, ptr %5, align 4
  %7 = icmp sgt i32 %6, 0
  br i1 %7, label %.lr.ph, label %._crit_edge

.lr.ph:                                           ; preds = %2
  %8 = getelementptr inbounds i8, ptr %3, i64 16
  %9 = getelementptr inbounds i8, ptr %3, i64 32
  %10 = getelementptr inbounds i8, ptr %3, i64 24
  %11 = getelementptr inbounds i8, ptr %3, i64 8
  %12 = getelementptr inbounds i8, ptr %0, i64 16
  br label %13

13:                                               ; preds = %.lr.ph, %_ZN7LIRItemC2EP11InstructionP12LIRGenerator.exit
  %indvars.iv = phi i64 [ 0, %.lr.ph ], [ %indvars.iv.next, %_ZN7LIRItemC2EP11InstructionP12LIRGenerator.exit ]
  %14 = phi ptr [ %5, %.lr.ph ], [ %42, %_ZN7LIRItemC2EP11InstructionP12LIRGenerator.exit ]
  %15 = getelementptr inbounds i8, ptr %14, i64 8
  %16 = load ptr, ptr %15, align 8
  %17 = getelementptr inbounds ptr, ptr %16, i64 %indvars.iv
  %18 = load ptr, ptr %17, align 8
  store i64 0, ptr %9, align 8
  store i8 0, ptr %10, align 8
  store ptr %0, ptr %11, align 8
  store ptr %18, ptr %3, align 8
  %19 = load i64, ptr @_ZN11LIR_OprFact10illegalOprE, align 8
  store i64 %19, ptr %8, align 8
  %.not.i.i = icmp eq ptr %18, null
  br i1 %.not.i.i, label %_ZN7LIRItemC2EP11InstructionP12LIRGenerator.exit, label %20

20:                                               ; preds = %13
  %21 = load ptr, ptr %12, align 8
  %22 = getelementptr inbounds i8, ptr %21, i64 696
  %23 = load ptr, ptr %22, align 8
  store ptr %18, ptr %22, align 8
  %24 = getelementptr inbounds i8, ptr %18, i64 16
  %25 = load i32, ptr %24, align 8
  %.not.i.i.i = icmp eq i32 %25, 0
  br i1 %.not.i.i.i, label %32, label %26

26:                                               ; preds = %20
  %27 = load ptr, ptr %18, align 8
  %28 = getelementptr inbounds i8, ptr %27, i64 16
  %29 = load ptr, ptr %28, align 8
  %30 = call noundef ptr %29(ptr noundef nonnull align 8 dereferenceable(96) %18) #17
  %31 = icmp eq ptr %30, null
  br i1 %31, label %_ZN12LIRGenerator4walkEP11Instruction.exit.i.i, label %32

32:                                               ; preds = %26, %20
  %33 = getelementptr inbounds i8, ptr %18, i64 48
  %.sroa.0.0.copyload.i.i.i.i = load i64, ptr %33, align 8
  %34 = and i64 %.sroa.0.0.copyload.i.i.i.i, 7
  %.not7.i.i.i = icmp eq i64 %34, 7
  br i1 %.not7.i.i.i, label %35, label %_ZN12LIRGenerator4walkEP11Instruction.exit.i.i

35:                                               ; preds = %32
  %36 = load ptr, ptr %18, align 8
  %37 = getelementptr inbounds i8, ptr %36, i64 416
  %38 = load ptr, ptr %37, align 8
  call void %38(ptr noundef nonnull align 8 dereferenceable(96) %18, ptr noundef nonnull %0) #17
  br label %_ZN12LIRGenerator4walkEP11Instruction.exit.i.i

_ZN12LIRGenerator4walkEP11Instruction.exit.i.i:   ; preds = %35, %32, %26
  store ptr %23, ptr %22, align 8
  %39 = load ptr, ptr %3, align 8
  %40 = getelementptr inbounds i8, ptr %39, i64 48
  %.sroa.0.0.copyload.i.i.i = load i64, ptr %40, align 8
  store i64 %.sroa.0.0.copyload.i.i.i, ptr %8, align 8
  %.pre.i.i = load i64, ptr @_ZN11LIR_OprFact10illegalOprE, align 8
  br label %_ZN7LIRItemC2EP11InstructionP12LIRGenerator.exit

_ZN7LIRItemC2EP11InstructionP12LIRGenerator.exit: ; preds = %13, %_ZN12LIRGenerator4walkEP11Instruction.exit.i.i
  %41 = phi i64 [ %.pre.i.i, %_ZN12LIRGenerator4walkEP11Instruction.exit.i.i ], [ %19, %13 ]
  store i64 %41, ptr %9, align 8
  call void @_ZN7LIRItem9load_itemEv(ptr noundef nonnull align 8 dereferenceable(40) %3)
  %indvars.iv.next = add nuw nsw i64 %indvars.iv, 1
  %42 = load ptr, ptr %4, align 8
  %43 = load i32, ptr %42, align 4
  %44 = sext i32 %43 to i64
  %45 = icmp slt i64 %indvars.iv.next, %44
  br i1 %45, label %13, label %._crit_edge, !llvm.loop !40

._crit_edge:                                      ; preds = %_ZN7LIRItemC2EP11InstructionP12LIRGenerator.exit, %2
  ret void
}